target datalayout = "e-m:e-p270:32:32-p271:32:32-p272:64:64-i64:64-i128:128-f80:128-n8:16:32:64-S128"
target triple = "x86_64-pc-linux-gnu"

%"class.sat::literal" = type { i32 }
%"class.sls::context" = type <{ ptr, ptr, %class.scoped_ptr_vector, %class.indexed_uint_set, %class.indexed_uint_set, %class.ref_vector, %class.svector, %class.params_ref, %class.vector.3, %class.svector.4, %class.svector.4, %class.indexed_uint_set, %class.random_gen, i8, i8, i8, i8, %class.ref_vector, %class.ref_vector, %class.ptr_vector.1, %"struct.sls::context::greater_depth", %"struct.sls::context::less_depth", %class.heap, %class.heap.8, %class.uint_set, %class.ref_vector, %"struct.sls::context::stats", [4 x i8], %class.ref_vector, i8, [7 x i8] }>
%class.scoped_ptr_vector = type { %class.ptr_vector }
%class.ptr_vector = type { %class.vector }
%class.vector = type { ptr }
%class.svector = type { %class.vector.0 }
%class.vector.0 = type { ptr }
%class.params_ref = type { ptr }
%class.vector.3 = type { ptr }
%class.svector.4 = type { %class.vector.5 }
%class.vector.5 = type { ptr }
%class.indexed_uint_set = type { i32, %class.svector, %class.svector }
%class.random_gen = type { i32 }
%class.ptr_vector.1 = type { %class.vector.2 }
%class.vector.2 = type { ptr }
%"struct.sls::context::greater_depth" = type { ptr }
%"struct.sls::context::less_depth" = type { ptr }
%class.heap = type { %"struct.sls::context::greater_depth", %class.svector.6, %class.svector.6 }
%class.svector.6 = type { %class.vector.7 }
%class.vector.7 = type { ptr }
%class.heap.8 = type { %"struct.sls::context::less_depth", %class.svector.6, %class.svector.6 }
%class.uint_set = type { %class.svector }
%"struct.sls::context::stats" = type { i32, i32, i32 }
%class.ref_vector = type { %class.ref_vector_core }
%class.ref_vector_core = type { %class.ref_manager_wrapper, %class.ptr_vector.1 }
%class.ref_manager_wrapper = type { ptr }

; Function Attrs: mustprogress nounwind uwtable
define linkonce_odr hidden noundef i32 @_ZNK6vectorIP4exprLb0EjE4sizeEv(ptr noundef nonnull align 8 dereferenceable(8) %0) #5 comdat align 2 {
  %2 = alloca i32, align 4
  %3 = alloca ptr, align 8
  store ptr %0, ptr %3, align 8, !tbaa !95
  %4 = load ptr, ptr %3, align 8
  %5 = getelementptr inbounds nuw %class.vector.2, ptr %4, i32 0, i32 0
  %6 = load ptr, ptr %5, align 8, !tbaa !195
  %7 = icmp eq ptr %6, null
  br i1 %7, label %8, label %9

8:                                                ; preds = %1
  store i32 0, ptr %2, align 4
  br label %14

9:                                                ; preds = %1
  %10 = getelementptr inbounds nuw %class.vector.2, ptr %4, i32 0, i32 0
  %11 = load ptr, ptr %10, align 8, !tbaa !195
  %12 = getelementptr inbounds i32, ptr %11, i64 -1
  %13 = load i32, ptr %12, align 4, !tbaa !74
  store i32 %13, ptr %2, align 4
  br label %14

14:                                               ; preds = %9, %8
  %15 = load i32, ptr %2, align 4
  ret i32 %15
}

; Function Attrs: mustprogress nounwind uwtable
define linkonce_odr hidden noundef nonnull align 8 dereferenceable(8) ptr @_ZNK6vectorIPN3sls6pluginELb0EjEixEj(ptr noundef nonnull align 8 dereferenceable(8) %0, i32 noundef %1) #5 comdat align 2 {
  %3 = alloca ptr, align 8
  %4 = alloca i32, align 4
  store ptr %0, ptr %3, align 8, !tbaa !322
  store i32 %1, ptr %4, align 4, !tbaa !74
  %5 = load ptr, ptr %3, align 8
  %6 = getelementptr inbounds nuw %class.vector, ptr %5, i32 0, i32 0
  %7 = load ptr, ptr %6, align 8, !tbaa !324
  %8 = load i32, ptr %4, align 4, !tbaa !74
  %9 = zext i32 %8 to i64
  %10 = getelementptr inbounds nuw ptr, ptr %7, i64 %9
  ret ptr %10
}

; Function Attrs: mustprogress nounwind uwtable
define linkonce_odr hidden noundef nonnull align 8 dereferenceable(8) ptr @_ZNK6vectorIP4exprLb0EjE3getEjRKS1_(ptr noundef nonnull align 8 dereferenceable(8) %0, i32 noundef %1, ptr noundef nonnull align 8 dereferenceable(8) %2) #5 comdat align 2 {
  %4 = alloca ptr, align 8
  %5 = alloca ptr, align 8
  %6 = alloca i32, align 4
  %7 = alloca ptr, align 8
  store ptr %0, ptr %5, align 8, !tbaa !95
  store i32 %1, ptr %6, align 4, !tbaa !74
  store ptr %2, ptr %7, align 8, !tbaa !173
  %8 = load ptr, ptr %5, align 8
  %9 = load i32, ptr %6, align 4, !tbaa !74
  %10 = call noundef i32 @_ZNK6vectorIP4exprLb0EjE4sizeEv(ptr noundef nonnull align 8 dereferenceable(8) %8)
  %11 = icmp uge i32 %9, %10
  br i1 %11, label %12, label %14

12:                                               ; preds = %3
  %13 = load ptr, ptr %7, align 8, !tbaa !173
  store ptr %13, ptr %4, align 8
  br label %20

14:                                               ; preds = %3
  %15 = getelementptr inbounds nuw %class.vector.2, ptr %8, i32 0, i32 0
  %16 = load ptr, ptr %15, align 8, !tbaa !195
  %17 = load i32, ptr %6, align 4, !tbaa !74
  %18 = zext i32 %17 to i64
  %19 = getelementptr inbounds nuw ptr, ptr %16, i64 %18
  store ptr %19, ptr %4, align 8
  br label %20

20:                                               ; preds = %14, %12
  %21 = load ptr, ptr %4, align 8
  ret ptr %21
}

; Function Attrs: mustprogress uwtable
define linkonce_odr hidden noundef ptr @_ZNK17scoped_ptr_vectorIN3sls6pluginEEixEj(ptr noundef nonnull align 8 dereferenceable(8) %0, i32 noundef %1) #4 comdat align 2 {
  %3 = alloca ptr, align 8
  %4 = alloca i32, align 4
  store ptr %0, ptr %3, align 8, !tbaa !55
  store i32 %1, ptr %4, align 4, !tbaa !74
  %5 = load ptr, ptr %3, align 8
  %6 = getelementptr inbounds nuw %class.scoped_ptr_vector, ptr %5, i32 0, i32 0
  %7 = load i32, ptr %4, align 4, !tbaa !74
  %8 = call noundef nonnull align 8 dereferenceable(8) ptr @_ZNK6vectorIPN3sls6pluginELb0EjEixEj(ptr noundef nonnull align 8 dereferenceable(8) %6, i32 noundef %7)
  %9 = load ptr, ptr %8, align 8, !tbaa !3
  ret ptr %9
}

; Function Attrs: mustprogress nounwind uwtable
define linkonce_odr hidden noundef i32 @_ZNK6vectorIPN3sls6pluginELb0EjE4sizeEv(ptr noundef nonnull align 8 dereferenceable(8) %0) #5 comdat align 2 {
  %2 = alloca i32, align 4
  %3 = alloca ptr, align 8
  store ptr %0, ptr %3, align 8, !tbaa !322
  %4 = load ptr, ptr %3, align 8
  %5 = getelementptr inbounds nuw %class.vector, ptr %4, i32 0, i32 0
  %6 = load ptr, ptr %5, align 8, !tbaa !324
  %7 = icmp eq ptr %6, null
  br i1 %7, label %8, label %9

8:                                                ; preds = %1
  store i32 0, ptr %2, align 4
  br label %14

9:                                                ; preds = %1
  %10 = getelementptr inbounds nuw %class.vector, ptr %4, i32 0, i32 0
  %11 = load ptr, ptr %10, align 8, !tbaa !324
  %12 = getelementptr inbounds i32, ptr %11, i64 -1
  %13 = load i32, ptr %12, align 4, !tbaa !74
  store i32 %13, ptr %2, align 4
  br label %14

14:                                               ; preds = %9, %8
  %15 = load i32, ptr %2, align 4
  ret i32 %15
}

; Function Attrs: mustprogress uwtable
define linkonce_odr hidden noundef ptr @_ZNK15ref_vector_coreI4expr19ref_manager_wrapperIS0_11ast_managerEE3getEjPS0_(ptr noundef nonnull align 8 dereferenceable(16) %0, i32 noundef %1, ptr noundef %2) #4 comdat align 2 {
  %4 = alloca ptr, align 8
  %5 = alloca i32, align 4
  %6 = alloca ptr, align 8
  store ptr %0, ptr %4, align 8, !tbaa !93
  store i32 %1, ptr %5, align 4, !tbaa !74
  store ptr %2, ptr %6, align 8, !tbaa !143
  %7 = load ptr, ptr %4, align 8
  %8 = getelementptr inbounds nuw %class.ref_vector_core, ptr %7, i32 0, i32 1
  %9 = load i32, ptr %5, align 4, !tbaa !74
  %10 = call noundef nonnull align 8 dereferenceable(8) ptr @_ZNK6vectorIP4exprLb0EjE3getEjRKS1_(ptr noundef nonnull align 8 dereferenceable(8) %8, i32 noundef %9, ptr noundef nonnull align 8 dereferenceable(8) %6)
  %11 = load ptr, ptr %10, align 8, !tbaa !143
  ret ptr %11
}

; Function Attrs: mustprogress uwtable
define linkonce_odr hidden noundef ptr @_ZNK17scoped_ptr_vectorIN3sls6pluginEE3getEjPS1_(ptr noundef nonnull align 8 dereferenceable(8) %0, i32 noundef %1, ptr noundef %2) #4 comdat align 2 {
  %4 = alloca ptr, align 8
  %5 = alloca i32, align 4
  %6 = alloca ptr, align 8
  store ptr %0, ptr %4, align 8, !tbaa !55
  store i32 %1, ptr %5, align 4, !tbaa !74
  store ptr %2, ptr %6, align 8, !tbaa !3
  %7 = load ptr, ptr %4, align 8
  %8 = load i32, ptr %5, align 4, !tbaa !74
  %9 = icmp ule i32 0, %8
  br i1 %9, label %10, label %18

10:                                               ; preds = %3
  %11 = load i32, ptr %5, align 4, !tbaa !74
  %12 = getelementptr inbounds nuw %class.scoped_ptr_vector, ptr %7, i32 0, i32 0
  %13 = call noundef i32 @_ZNK6vectorIPN3sls6pluginELb0EjE4sizeEv(ptr noundef nonnull align 8 dereferenceable(8) %12)
  %14 = icmp ult i32 %11, %13
  br i1 %14, label %15, label %18

15:                                               ; preds = %10
  %16 = load i32, ptr %5, align 4, !tbaa !74
  %17 = call noundef ptr @_ZNK17scoped_ptr_vectorIN3sls6pluginEEixEj(ptr noundef nonnull align 8 dereferenceable(8) %7, i32 noundef %16)
  br label %20

18:                                               ; preds = %10, %3
  %19 = load ptr, ptr %6, align 8, !tbaa !3
  br label %20

20:                                               ; preds = %18, %15
  %21 = phi ptr [ %17, %15 ], [ %19, %18 ]
  ret ptr %21
}

; Function Attrs: mustprogress uwtable
define linkonce_odr hidden noundef ptr @_ZN3sls7context4atomEj(ptr noundef nonnull align 8 dereferenceable(321) %0, i32 noundef %1) #4 comdat align 2 {
  %3 = alloca ptr, align 8
  %4 = alloca i32, align 4
  store ptr %0, ptr %3, align 8, !tbaa !8
  store i32 %1, ptr %4, align 4, !tbaa !74
  %5 = load ptr, ptr %3, align 8
  %6 = getelementptr inbounds nuw %"class.sls::context", ptr %5, i32 0, i32 5
  %7 = load i32, ptr %4, align 4, !tbaa !74
  %8 = call noundef ptr @_ZNK15ref_vector_coreI4expr19ref_manager_wrapperIS0_11ast_managerEE3getEjPS0_(ptr noundef nonnull align 8 dereferenceable(16) %6, i32 noundef %7, ptr noundef null)
  ret ptr %8
}

; Function Attrs: mustprogress nounwind uwtable
define linkonce_odr hidden noundef i32 @_ZNK3sat7literal3varEv(ptr noundef nonnull align 4 dereferenceable(4) %0) #5 comdat align 2 {
  %2 = alloca ptr, align 8
  store ptr %0, ptr %2, align 8, !tbaa !169
  %3 = load ptr, ptr %2, align 8
  %4 = getelementptr inbounds nuw %"class.sat::literal", ptr %3, i32 0, i32 0
  %5 = load i32, ptr %4, align 4, !tbaa !223
  %6 = lshr i32 %5, 1
  ret i32 %6
}

; Function Attrs: mustprogress uwtable
define linkonce_odr hidden noundef zeroext i1 @_ZN3sls7context7is_trueEN3sat7literalE(ptr noundef nonnull align 8 dereferenceable(321) %0, i32 %1) #4 comdat align 2 {
  %3 = alloca %"class.sat::literal", align 4
  %4 = alloca ptr, align 8
  %5 = alloca %"class.sat::literal", align 4
  %6 = getelementptr inbounds nuw %"class.sat::literal", ptr %3, i32 0, i32 0
  store i32 %1, ptr %6, align 4
  store ptr %0, ptr %4, align 8, !tbaa !8
  %7 = load ptr, ptr %4, align 8
  %8 = getelementptr inbounds nuw %"class.sls::context", ptr %7, i32 0, i32 1
  %9 = load ptr, ptr %8, align 8, !tbaa !164
  call void @llvm.memcpy.p0.p0.i64(ptr align 4 %5, ptr align 4 %3, i64 4, i1 false), !tbaa.struct !170
  %10 = getelementptr inbounds nuw %"class.sat::literal", ptr %5, i32 0, i32 0
  %11 = load i32, ptr %10, align 4
  %12 = load ptr, ptr %9, align 8, !tbaa !10
  %13 = getelementptr inbounds ptr, ptr %12, i64 10
  %14 = load ptr, ptr %13, align 8
  %15 = call noundef zeroext i1 %14(ptr noundef nonnull align 8 dereferenceable(8) %9, i32 %11)
  ret i1 %15
}

; Function Attrs: mustprogress uwtable
define hidden void @_ZN3sls7context17propagate_literalEN3sat7literalE(ptr noundef nonnull align 8 dereferenceable(321) %0, i32 %1) #4 align 2 {
  %3 = alloca %"class.sat::literal", align 4
  %4 = alloca ptr, align 8
  %5 = alloca %"class.sat::literal", align 4
  %6 = alloca ptr, align 8
  %7 = alloca i32, align 4
  %8 = alloca i32, align 4
  %9 = alloca ptr, align 8
  %10 = alloca %"class.sat::literal", align 4
  %11 = getelementptr inbounds nuw %"class.sat::literal", ptr %3, i32 0, i32 0
  store i32 %1, ptr %11, align 4
  store ptr %0, ptr %4, align 8, !tbaa !8
  %12 = load ptr, ptr %4, align 8
  call void @llvm.memcpy.p0.p0.i64(ptr align 4 %5, ptr align 4 %3, i64 4, i1 false), !tbaa.struct !170
  %13 = getelementptr inbounds nuw %"class.sat::literal", ptr %5, i32 0, i32 0
  %14 = load i32, ptr %13, align 4
  %15 = call noundef zeroext i1 @_ZN3sls7context7is_trueEN3sat7literalE(ptr noundef nonnull align 8 dereferenceable(321) %12, i32 %14)
  br i1 %15, label %17, label %16

16:                                               ; preds = %2
  br label %41

17:                                               ; preds = %2
  call void @llvm.lifetime.start.p0(i64 8, ptr %6) #3
  %18 = call noundef i32 @_ZNK3sat7literal3varEv(ptr noundef nonnull align 4 dereferenceable(4) %3)
  %19 = call noundef ptr @_ZN3sls7context4atomEj(ptr noundef nonnull align 8 dereferenceable(321) %12, i32 noundef %18)
  store ptr %19, ptr %6, align 8, !tbaa !143
  %20 = load ptr, ptr %6, align 8, !tbaa !143
  %21 = icmp ne ptr %20, null
  br i1 %21, label %23, label %22

22:                                               ; preds = %17
  store i32 1, ptr %7, align 4
  br label %39

23:                                               ; preds = %17
  call void @llvm.lifetime.start.p0(i64 4, ptr %8) #3
  %24 = load ptr, ptr %6, align 8, !tbaa !143
  %25 = call noundef i32 @_ZNK3sls7context7get_fidEP4expr(ptr noundef nonnull align 8 dereferenceable(321) %12, ptr noundef %24)
  store i32 %25, ptr %8, align 4, !tbaa !74
  call void @llvm.lifetime.start.p0(i64 8, ptr %9) #3
  %26 = getelementptr inbounds nuw %"class.sls::context", ptr %12, i32 0, i32 2
  %27 = load i32, ptr %8, align 4, !tbaa !74
  %28 = call noundef ptr @_ZNK17scoped_ptr_vectorIN3sls6pluginEE3getEjPS1_(ptr noundef nonnull align 8 dereferenceable(8) %26, i32 noundef %27, ptr noundef null)
  store ptr %28, ptr %9, align 8, !tbaa !3
  %29 = load ptr, ptr %9, align 8, !tbaa !3
  %30 = icmp ne ptr %29, null
  br i1 %30, label %31, label %38

31:                                               ; preds = %23
  %32 = load ptr, ptr %9, align 8, !tbaa !3
  call void @llvm.memcpy.p0.p0.i64(ptr align 4 %10, ptr align 4 %3, i64 4, i1 false), !tbaa.struct !170
  %33 = getelementptr inbounds nuw %"class.sat::literal", ptr %10, i32 0, i32 0
  %34 = load i32, ptr %33, align 4
  %35 = load ptr, ptr %32, align 8, !tbaa !10
  %36 = getelementptr inbounds ptr, ptr %35, i64 9
  %37 = load ptr, ptr %36, align 8
  call void %37(ptr noundef nonnull align 8 dereferenceable(28) %32, i32 %34)
  br label %38

38:                                               ; preds = %31, %23
  call void @llvm.lifetime.end.p0(i64 8, ptr %9) #3
  call void @llvm.lifetime.end.p0(i64 4, ptr %8) #3
  store i32 0, ptr %7, align 4
  br label %39

39:                                               ; preds = %38, %22
  call void @llvm.lifetime.end.p0(i64 8, ptr %6) #3
  %40 = load i32, ptr %7, align 4
  switch i32 %40, label %42 [
    i32 0, label %41
    i32 1, label %41
  ]

41:                                               ; preds = %16, %39, %39
  ret void

42:                                               ; preds = %39
  unreachable
}