; Function Attrs: mustprogress uwtable
define hidden void @_ZN3sls7context17propagate_literalEN3sat7literalE(ptr noundef nonnull readonly align 8 captures(none) dereferenceable(321) %0, i32 %1) local_unnamed_addr #4 align 2 {
  %3 = getelementptr inbounds nuw i8, ptr %0, i64 8
  %4 = load ptr, ptr %3, align 8, !tbaa !148
  %5 = load ptr, ptr %4, align 8, !tbaa !3
  %6 = getelementptr inbounds nuw i8, ptr %5, i64 80
  %7 = load ptr, ptr %6, align 8
  %8 = tail call noundef zeroext i1 %7(ptr noundef nonnull align 8 dereferenceable(8) %4, i32 %1)
  br i1 %8, label %9, label %_ZN3sls7context4atomEj.exit.thread

9:                                                ; preds = %2
  %10 = lshr i32 %1, 1
  %11 = getelementptr inbounds nuw i8, ptr %0, i64 80
  %12 = load ptr, ptr %11, align 8, !tbaa !51
  %13 = icmp eq ptr %12, null
  br i1 %13, label %_ZN3sls7context4atomEj.exit.thread, label %_ZNK6vectorIP4exprLb0EjE3getEjRKS1_.exit.i.i

_ZNK6vectorIP4exprLb0EjE3getEjRKS1_.exit.i.i:     ; preds = %9
  %14 = getelementptr inbounds i8, ptr %12, i64 -4
  %15 = load i32, ptr %14, align 4, !tbaa !58
  %.not.i.i.i = icmp ult i32 %10, %15
  br i1 %.not.i.i.i, label %_ZN3sls7context4atomEj.exit, label %_ZN3sls7context4atomEj.exit.thread

_ZN3sls7context4atomEj.exit:                      ; preds = %_ZNK6vectorIP4exprLb0EjE3getEjRKS1_.exit.i.i
  %16 = zext nneg i32 %10 to i64
  %17 = getelementptr inbounds nuw ptr, ptr %12, i64 %16
  %.then.val.i.i = load ptr, ptr %17, align 8, !tbaa !61
  %.not = icmp eq ptr %.then.val.i.i, null
  br i1 %.not, label %_ZN3sls7context4atomEj.exit.thread, label %18

18:                                               ; preds = %_ZN3sls7context4atomEj.exit
  %19 = tail call noundef i32 @_ZNK3sls7context7get_fidEP4expr(ptr noundef nonnull align 8 dereferenceable(321) %0, ptr noundef nonnull %.then.val.i.i)
  %20 = getelementptr inbounds nuw i8, ptr %0, i64 16
  %21 = load ptr, ptr %20, align 8, !tbaa !49
  %22 = icmp eq ptr %21, null
  br i1 %22, label %_ZN3sls7context4atomEj.exit.thread, label %_ZNK6vectorIPN3sls6pluginELb0EjE4sizeEv.exit.i

_ZNK6vectorIPN3sls6pluginELb0EjE4sizeEv.exit.i:   ; preds = %18
  %23 = getelementptr inbounds i8, ptr %21, i64 -4
  %24 = load i32, ptr %23, align 4, !tbaa !58
  %25 = icmp ult i32 %19, %24
  br i1 %25, label %_ZNK17scoped_ptr_vectorIN3sls6pluginEE3getEjPS1_.exit, label %_ZN3sls7context4atomEj.exit.thread

_ZNK17scoped_ptr_vectorIN3sls6pluginEE3getEjPS1_.exit: ; preds = %_ZNK6vectorIPN3sls6pluginELb0EjE4sizeEv.exit.i
  %26 = zext i32 %19 to i64
  %27 = getelementptr inbounds nuw ptr, ptr %21, i64 %26
  %28 = load ptr, ptr %27, align 8, !tbaa !70
  %.not7 = icmp eq ptr %28, null
  br i1 %.not7, label %_ZN3sls7context4atomEj.exit.thread, label %29

29:                                               ; preds = %_ZNK17scoped_ptr_vectorIN3sls6pluginEE3getEjPS1_.exit
  %30 = load ptr, ptr %28, align 8, !tbaa !3
  %31 = getelementptr inbounds nuw i8, ptr %30, i64 72
  %32 = load ptr, ptr %31, align 8
  tail call void %32(ptr noundef nonnull align 8 dereferenceable(28) %28, i32 %1)
  br label %_ZN3sls7context4atomEj.exit.thread

_ZN3sls7context4atomEj.exit.thread:               ; preds = %18, %_ZNK6vectorIPN3sls6pluginELb0EjE4sizeEv.exit.i, %9, %_ZNK6vectorIP4exprLb0EjE3getEjRKS1_.exit.i.i, %_ZN3sls7context4atomEj.exit, %29, %_ZNK17scoped_ptr_vectorIN3sls6pluginEE3getEjPS1_.exit, %2
  ret void
}